#include <math.h>
#include <stdio.h>
#include <stdlib.h>
#include <string.h>

void main()
{
	int i,j,k,n;
	char a[100],b[100];
	scanf("%d",&n);
	for(i=0;i<n;i++)
	{	scanf("%s%s",a,b);
	for(j=strlen(a)-1,k=strlen(b)-1;k>=0;j--,k--)
	{
		a[j]=a[j]-b[k]+'0';
		if(a[j]<'0')
		{
          a[j]=a[j]+10;
		  a[j-1]=a[j-1]-1;
		}
	}
	k=strlen(a);
   for(j=0;a[j]=='0';j++);
	for(;j<k;j++)
		printf("%c",a[j]);
	printf("\n");
}
}
