; ModuleID = 'source-C-CXX/31/340.c'
source_filename = "source-C-CXX/31/340.c"
target datalayout = "e-m:e-p270:32:32-p271:32:32-p272:64:64-i64:64-f80:128-n8:16:32:64-S128"
target triple = "x86_64-pc-linux-gnu"

@.str = private unnamed_addr constant [3 x i8] c"%d\00", align 1
@.str.1 = private unnamed_addr constant [5 x i8] c"%s%s\00", align 1

; Function Attrs: nofree nounwind sspstrong uwtable
define dso_local void @main() local_unnamed_addr #0 {
  %1 = alloca i32, align 4
  %2 = alloca [100 x i8], align 16
  %3 = alloca [100 x i8], align 16
  %4 = bitcast i32* %1 to i8*
  call void @llvm.lifetime.start.p0i8(i64 4, i8* nonnull %4) #5
  %5 = getelementptr inbounds [100 x i8], [100 x i8]* %2, i64 0, i64 0
  call void @llvm.lifetime.start.p0i8(i64 100, i8* nonnull %5) #5
  %6 = getelementptr inbounds [100 x i8], [100 x i8]* %3, i64 0, i64 0
  call void @llvm.lifetime.start.p0i8(i64 100, i8* nonnull %6) #5
  %7 = call i32 (i8*, ...) @__isoc99_scanf(i8* getelementptr inbounds ([3 x i8], [3 x i8]* @.str, i64 0, i64 0), i32* nonnull %1)
  %8 = load i32, i32* %1, align 4, !tbaa !5
  %9 = icmp sgt i32 %8, 0
  br i1 %9, label %10, label %71

10:                                               ; preds = %0, %66
  %11 = phi i32 [ %68, %66 ], [ 0, %0 ]
  %12 = call i32 (i8*, ...) @__isoc99_scanf(i8* getelementptr inbounds ([5 x i8], [5 x i8]* @.str.1, i64 0, i64 0), i8* nonnull %5, i8* nonnull %6)
  %13 = call i64 @strlen(i8* noundef nonnull %6) #6
  %14 = trunc i64 %13 to i32
  %15 = add i32 %14, -1
  %16 = icmp sgt i32 %15, -1
  br i1 %16, label %17, label %43

17:                                               ; preds = %10
  %18 = call i64 @strlen(i8* noundef nonnull %5) #6
  %19 = trunc i64 %18 to i32
  br label %20

20:                                               ; preds = %17, %40
  %21 = phi i32 [ %41, %40 ], [ %15, %17 ]
  %22 = phi i32 [ %23, %40 ], [ %19, %17 ]
  %23 = add i32 %22, -1
  %24 = sext i32 %23 to i64
  %25 = getelementptr inbounds [100 x i8], [100 x i8]* %2, i64 0, i64 %24
  %26 = load i8, i8* %25, align 1, !tbaa !9
  %27 = zext i32 %21 to i64
  %28 = getelementptr inbounds [100 x i8], [100 x i8]* %3, i64 0, i64 %27
  %29 = load i8, i8* %28, align 1, !tbaa !9
  %30 = sub i8 %26, %29
  %31 = add i8 %30, 48
  store i8 %31, i8* %25, align 1, !tbaa !9
  %32 = icmp ugt i8 %30, 79
  br i1 %32, label %33, label %40

33:                                               ; preds = %20
  %34 = add i8 %30, 58
  store i8 %34, i8* %25, align 1, !tbaa !9
  %35 = add i32 %22, -2
  %36 = sext i32 %35 to i64
  %37 = getelementptr inbounds [100 x i8], [100 x i8]* %2, i64 0, i64 %36
  %38 = load i8, i8* %37, align 1, !tbaa !9
  %39 = add i8 %38, -1
  store i8 %39, i8* %37, align 1, !tbaa !9
  br label %40

40:                                               ; preds = %20, %33
  %41 = add i32 %21, -1
  %42 = icmp sgt i32 %41, -1
  br i1 %42, label %20, label %43, !llvm.loop !10

43:                                               ; preds = %40, %10
  %44 = call i64 @strlen(i8* noundef nonnull %5) #6
  br label %45

45:                                               ; preds = %45, %43
  %46 = phi i64 [ %50, %45 ], [ 0, %43 ]
  %47 = getelementptr inbounds [100 x i8], [100 x i8]* %2, i64 0, i64 %46
  %48 = load i8, i8* %47, align 1, !tbaa !9
  %49 = icmp eq i8 %48, 48
  %50 = add nuw i64 %46, 1
  br i1 %49, label %45, label %51, !llvm.loop !12

51:                                               ; preds = %45
  %52 = trunc i64 %44 to i32
  %53 = trunc i64 %46 to i32
  %54 = icmp slt i32 %53, %52
  br i1 %54, label %55, label %66

55:                                               ; preds = %51
  %56 = and i64 %46, 4294967295
  br label %57

57:                                               ; preds = %55, %57
  %58 = phi i64 [ %56, %55 ], [ %63, %57 ]
  %59 = getelementptr inbounds [100 x i8], [100 x i8]* %2, i64 0, i64 %58
  %60 = load i8, i8* %59, align 1, !tbaa !9
  %61 = sext i8 %60 to i32
  %62 = call i32 @putchar(i32 %61)
  %63 = add nuw nsw i64 %58, 1
  %64 = trunc i64 %63 to i32
  %65 = icmp eq i32 %64, %52
  br i1 %65, label %66, label %57, !llvm.loop !13

66:                                               ; preds = %57, %51
  %67 = call i32 @putchar(i32 10)
  %68 = add nuw nsw i32 %11, 1
  %69 = load i32, i32* %1, align 4, !tbaa !5
  %70 = icmp slt i32 %68, %69
  br i1 %70, label %10, label %71, !llvm.loop !14

71:                                               ; preds = %66, %0
  call void @llvm.lifetime.end.p0i8(i64 100, i8* nonnull %6) #5
  call void @llvm.lifetime.end.p0i8(i64 100, i8* nonnull %5) #5
  call void @llvm.lifetime.end.p0i8(i64 4, i8* nonnull %4) #5
  ret void
}

; Function Attrs: argmemonly mustprogress nofree nosync nounwind willreturn
declare void @llvm.lifetime.start.p0i8(i64 immarg, i8* nocapture) #1

; Function Attrs: nofree nounwind
declare noundef i32 @__isoc99_scanf(i8* nocapture noundef readonly, ...) local_unnamed_addr #2

; Function Attrs: argmemonly mustprogress nofree nounwind readonly willreturn
declare i64 @strlen(i8* nocapture) local_unnamed_addr #3

; Function Attrs: argmemonly mustprogress nofree nosync nounwind willreturn
declare void @llvm.lifetime.end.p0i8(i64 immarg, i8* nocapture) #1

; Function Attrs: nofree nounwind
declare noundef i32 @putchar(i32 noundef) local_unnamed_addr #4


!llvm.module.flags = !{!0, !1, !2, !3}
!llvm.ident = !{!4}

!0 = !{i32 1, !"wchar_size", i32 4}
!1 = !{i32 7, !"PIC Level", i32 2}
!2 = !{i32 7, !"PIE Level", i32 2}
!3 = !{i32 7, !"uwtable", i32 1}
!4 = !{!"clang version 13.0.0"}
!5 = !{!6, !6, i64 0}
!6 = !{!"int", !7, i64 0}
!7 = !{!"omnipotent char", !8, i64 0}
!8 = !{!"Simple C/C++ TBAA"}
!9 = !{!7, !7, i64 0}
!10 = distinct !{!10, !11}
!11 = !{!"llvm.loop.mustprogress"}
!12 = distinct !{!12, !11}
!13 = distinct !{!13, !11}
!14 = distinct !{!14, !11}
